target datalayout = "e-m:e-p270:32:32-p271:32:32-p272:64:64-i64:64-i128:128-f80:128-n8:16:32:64-S128"
target triple = "x86_64-pc-linux-gnu"

%struct.Cov_Man_t_ = type { i32, i32, i32, ptr, ptr, ptr, ptr, i32, i32, ptr, ptr, ptr, ptr, ptr, ptr, i32, i32, i32, i32 }
%struct.Abc_Ntk_t_ = type { i32, i32, ptr, ptr, ptr, ptr, ptr, ptr, ptr, ptr, ptr, ptr, ptr, [11 x i32], i32, i32, i32, i32, ptr, i32, ptr, ptr, i32, i32, i32, double, i32, %struct.Vec_Int_t_, ptr, ptr, ptr, ptr, ptr, float, i32, ptr, ptr, ptr, ptr, ptr, ptr, ptr, ptr, ptr, ptr, ptr, ptr, ptr, ptr, ptr, ptr, ptr, ptr, ptr, ptr, ptr, ptr }
%struct.Vec_Int_t_ = type { i32, i32, ptr }
%struct.Cov_Obj_t_ = type { [3 x ptr], ptr }
%struct.Vec_Ptr_t_ = type { i32, i32, ptr }
%struct.Abc_Obj_t_ = type { ptr, ptr, i32, i32, %struct.Vec_Int_t_, %struct.Vec_Int_t_, %union.anon, %union.anon.0 }
%union.anon = type { ptr }
%union.anon.0 = type { ptr }
%struct.Min_Cube_t_ = type { ptr, i32, [1 x i32] }
%struct.Min_Man_t_ = type { i32, i32, ptr, ptr, ptr, [2 x ptr], [2 x ptr], ptr, ptr, i32, ptr }

; Function Attrs: inlinehint nounwind uwtable
define internal ptr @Vec_PtrEntry(ptr noundef %0, i32 noundef %1) #4 {
  %3 = alloca ptr, align 8
  %4 = alloca i32, align 4
  store ptr %0, ptr %3, align 8, !tbaa !52
  store i32 %1, ptr %4, align 4, !tbaa !8
  %5 = load ptr, ptr %3, align 8, !tbaa !52
  %6 = getelementptr inbounds nuw %struct.Vec_Ptr_t_, ptr %5, i32 0, i32 2
  %7 = load ptr, ptr %6, align 8, !tbaa !56
  %8 = load i32, ptr %4, align 4, !tbaa !8
  %9 = sext i32 %8 to i64
  %10 = getelementptr inbounds ptr, ptr %7, i64 %9
  %11 = load ptr, ptr %10, align 8, !tbaa !57
  ret ptr %11
}

; Function Attrs: inlinehint nounwind uwtable
define internal ptr @Abc_ObjGetStr(ptr noundef %0) #4 {
  %2 = alloca ptr, align 8
  store ptr %0, ptr %2, align 8, !tbaa !43
  %3 = load ptr, ptr %2, align 8, !tbaa !43
  %4 = getelementptr inbounds nuw %struct.Abc_Obj_t_, ptr %3, i32 0, i32 0
  %5 = load ptr, ptr %4, align 8, !tbaa !76
  %6 = getelementptr inbounds nuw %struct.Abc_Ntk_t_, ptr %5, i32 0, i32 32
  %7 = load ptr, ptr %6, align 8, !tbaa !77
  %8 = getelementptr inbounds nuw %struct.Cov_Man_t_, ptr %7, i32 0, i32 4
  %9 = load ptr, ptr %8, align 8, !tbaa !28
  %10 = load ptr, ptr %2, align 8, !tbaa !43
  %11 = getelementptr inbounds nuw %struct.Abc_Obj_t_, ptr %10, i32 0, i32 2
  %12 = load i32, ptr %11, align 8, !tbaa !63
  %13 = call ptr @Vec_PtrEntry(ptr noundef %9, i32 noundef %12)
  ret ptr %13
}

; Function Attrs: inlinehint nounwind uwtable
define internal void @Vec_IntWriteEntry(ptr noundef %0, i32 noundef %1, i32 noundef %2) #4 {
  %4 = alloca ptr, align 8
  %5 = alloca i32, align 4
  %6 = alloca i32, align 4
  store ptr %0, ptr %4, align 8, !tbaa !48
  store i32 %1, ptr %5, align 4, !tbaa !8
  store i32 %2, ptr %6, align 4, !tbaa !8
  %7 = load i32, ptr %6, align 4, !tbaa !8
  %8 = load ptr, ptr %4, align 8, !tbaa !48
  %9 = getelementptr inbounds nuw %struct.Vec_Int_t_, ptr %8, i32 0, i32 2
  %10 = load ptr, ptr %9, align 8, !tbaa !51
  %11 = load i32, ptr %5, align 4, !tbaa !8
  %12 = sext i32 %11 to i64
  %13 = getelementptr inbounds i32, ptr %10, i64 %12
  store i32 %7, ptr %13, align 4, !tbaa !8
  ret void
}

; Function Attrs: inlinehint nounwind uwtable
define internal void @Abc_ObjSetCover2(ptr noundef %0, ptr noundef %1) #4 {
  %3 = alloca ptr, align 8
  %4 = alloca ptr, align 8
  store ptr %0, ptr %3, align 8, !tbaa !43
  store ptr %1, ptr %4, align 8, !tbaa !67
  %5 = load ptr, ptr %4, align 8, !tbaa !67
  %6 = load ptr, ptr %3, align 8, !tbaa !43
  %7 = call ptr @Abc_ObjGetStr(ptr noundef %6)
  %8 = getelementptr inbounds nuw %struct.Cov_Obj_t_, ptr %7, i32 0, i32 0
  %9 = getelementptr inbounds [3 x ptr], ptr %8, i64 0, i64 2
  store ptr %5, ptr %9, align 8, !tbaa !67
  ret void
}

; Function Attrs: inlinehint nounwind uwtable
define internal void @Min_CoverRecycle(ptr noundef %0, ptr noundef %1) #4 {
  %3 = alloca ptr, align 8
  %4 = alloca ptr, align 8
  %5 = alloca ptr, align 8
  %6 = alloca ptr, align 8
  store ptr %0, ptr %3, align 8, !tbaa !66
  store ptr %1, ptr %4, align 8, !tbaa !67
  call void @llvm.lifetime.start.p0(i64 8, ptr %5) #8
  call void @llvm.lifetime.start.p0(i64 8, ptr %6) #8
  %7 = load ptr, ptr %4, align 8, !tbaa !67
  store ptr %7, ptr %5, align 8, !tbaa !67
  %8 = load ptr, ptr %5, align 8, !tbaa !67
  %9 = icmp ne ptr %8, null
  br i1 %9, label %10, label %14

10:                                               ; preds = %2
  %11 = load ptr, ptr %5, align 8, !tbaa !67
  %12 = getelementptr inbounds nuw %struct.Min_Cube_t_, ptr %11, i32 0, i32 0
  %13 = load ptr, ptr %12, align 8, !tbaa !69
  br label %15

14:                                               ; preds = %2
  br label %15

15:                                               ; preds = %14, %10
  %16 = phi ptr [ %13, %10 ], [ null, %14 ]
  store ptr %16, ptr %6, align 8, !tbaa !67
  br label %17

17:                                               ; preds = %34, %15
  %18 = load ptr, ptr %5, align 8, !tbaa !67
  %19 = icmp ne ptr %18, null
  br i1 %19, label %20, label %36

20:                                               ; preds = %17
  %21 = load ptr, ptr %3, align 8, !tbaa !66
  %22 = getelementptr inbounds nuw %struct.Min_Man_t_, ptr %21, i32 0, i32 2
  %23 = load ptr, ptr %22, align 8, !tbaa !71
  %24 = load ptr, ptr %5, align 8, !tbaa !67
  call void @Extra_MmFixedEntryRecycle(ptr noundef %23, ptr noundef %24)
  br label %25

25:                                               ; preds = %20
  %26 = load ptr, ptr %6, align 8, !tbaa !67
  store ptr %26, ptr %5, align 8, !tbaa !67
  %27 = load ptr, ptr %5, align 8, !tbaa !67
  %28 = icmp ne ptr %27, null
  br i1 %28, label %29, label %33

29:                                               ; preds = %25
  %30 = load ptr, ptr %5, align 8, !tbaa !67
  %31 = getelementptr inbounds nuw %struct.Min_Cube_t_, ptr %30, i32 0, i32 0
  %32 = load ptr, ptr %31, align 8, !tbaa !69
  br label %34

33:                                               ; preds = %25
  br label %34

34:                                               ; preds = %33, %29
  %35 = phi ptr [ %32, %29 ], [ null, %33 ]
  store ptr %35, ptr %6, align 8, !tbaa !67
  br label %17, !llvm.loop !75

36:                                               ; preds = %17
  call void @llvm.lifetime.end.p0(i64 8, ptr %6) #8
  call void @llvm.lifetime.end.p0(i64 8, ptr %5) #8
  ret void
}

; Function Attrs: inlinehint nounwind uwtable
define internal ptr @Abc_ObjGetCover2(ptr noundef %0) #4 {
  %2 = alloca ptr, align 8
  store ptr %0, ptr %2, align 8, !tbaa !43
  %3 = load ptr, ptr %2, align 8, !tbaa !43
  %4 = call ptr @Abc_ObjGetStr(ptr noundef %3)
  %5 = getelementptr inbounds nuw %struct.Cov_Obj_t_, ptr %4, i32 0, i32 0
  %6 = getelementptr inbounds [3 x ptr], ptr %5, i64 0, i64 2
  %7 = load ptr, ptr %6, align 8, !tbaa !67
  ret ptr %7
}

; Function Attrs: inlinehint nounwind uwtable
define internal void @Abc_ObjSetSupp(ptr noundef %0, ptr noundef %1) #4 {
  %3 = alloca ptr, align 8
  %4 = alloca ptr, align 8
  store ptr %0, ptr %3, align 8, !tbaa !43
  store ptr %1, ptr %4, align 8, !tbaa !48
  %5 = load ptr, ptr %4, align 8, !tbaa !48
  %6 = load ptr, ptr %3, align 8, !tbaa !43
  %7 = call ptr @Abc_ObjGetStr(ptr noundef %6)
  %8 = getelementptr inbounds nuw %struct.Cov_Obj_t_, ptr %7, i32 0, i32 1
  store ptr %5, ptr %8, align 8, !tbaa !59
  ret void
}

; Function Attrs: inlinehint nounwind uwtable
define internal void @Vec_IntFree(ptr noundef %0) #4 {
  %2 = alloca ptr, align 8
  store ptr %0, ptr %2, align 8, !tbaa !48
  %3 = load ptr, ptr %2, align 8, !tbaa !48
  %4 = getelementptr inbounds nuw %struct.Vec_Int_t_, ptr %3, i32 0, i32 2
  %5 = load ptr, ptr %4, align 8, !tbaa !51
  %6 = icmp ne ptr %5, null
  br i1 %6, label %7, label %13

7:                                                ; preds = %1
  %8 = load ptr, ptr %2, align 8, !tbaa !48
  %9 = getelementptr inbounds nuw %struct.Vec_Int_t_, ptr %8, i32 0, i32 2
  %10 = load ptr, ptr %9, align 8, !tbaa !51
  call void @free(ptr noundef %10) #8
  %11 = load ptr, ptr %2, align 8, !tbaa !48
  %12 = getelementptr inbounds nuw %struct.Vec_Int_t_, ptr %11, i32 0, i32 2
  store ptr null, ptr %12, align 8, !tbaa !51
  br label %14

13:                                               ; preds = %1
  br label %14

14:                                               ; preds = %13, %7
  %15 = load ptr, ptr %2, align 8, !tbaa !48
  %16 = icmp ne ptr %15, null
  br i1 %16, label %17, label %19

17:                                               ; preds = %14
  %18 = load ptr, ptr %2, align 8, !tbaa !48
  call void @free(ptr noundef %18) #8
  store ptr null, ptr %2, align 8, !tbaa !48
  br label %20

19:                                               ; preds = %14
  br label %20

20:                                               ; preds = %19, %17
  ret void
}

; Function Attrs: inlinehint nounwind uwtable
define internal ptr @Abc_ObjGetSupp(ptr noundef %0) #4 {
  %2 = alloca ptr, align 8
  store ptr %0, ptr %2, align 8, !tbaa !43
  %3 = load ptr, ptr %2, align 8, !tbaa !43
  %4 = call ptr @Abc_ObjGetStr(ptr noundef %3)
  %5 = getelementptr inbounds nuw %struct.Cov_Obj_t_, ptr %4, i32 0, i32 1
  %6 = load ptr, ptr %5, align 8, !tbaa !59
  ret ptr %6
}

; Function Attrs: inlinehint nounwind uwtable
define internal i32 @Vec_IntEntry(ptr noundef %0, i32 noundef %1) #4 {
  %3 = alloca ptr, align 8
  %4 = alloca i32, align 4
  store ptr %0, ptr %3, align 8, !tbaa !48
  store i32 %1, ptr %4, align 4, !tbaa !8
  %5 = load ptr, ptr %3, align 8, !tbaa !48
  %6 = getelementptr inbounds nuw %struct.Vec_Int_t_, ptr %5, i32 0, i32 2
  %7 = load ptr, ptr %6, align 8, !tbaa !51
  %8 = load i32, ptr %4, align 4, !tbaa !8
  %9 = sext i32 %8 to i64
  %10 = getelementptr inbounds i32, ptr %7, i64 %9
  %11 = load i32, ptr %10, align 4, !tbaa !8
  ret i32 %11
}

; Function Attrs: nounwind uwtable
define void @Abc_NodeCovDropData(ptr noundef %0, ptr noundef %1) #0 {
  %3 = alloca ptr, align 8
  %4 = alloca ptr, align 8
  %5 = alloca i32, align 4
  store ptr %0, ptr %3, align 8, !tbaa !10
  store ptr %1, ptr %4, align 8, !tbaa !43
  call void @llvm.lifetime.start.p0(i64 4, ptr %5) #8
  %6 = load ptr, ptr %3, align 8, !tbaa !10
  %7 = getelementptr inbounds nuw %struct.Cov_Man_t_, ptr %6, i32 0, i32 3
  %8 = load ptr, ptr %7, align 8, !tbaa !62
  %9 = load ptr, ptr %4, align 8, !tbaa !43
  %10 = getelementptr inbounds nuw %struct.Abc_Obj_t_, ptr %9, i32 0, i32 2
  %11 = load i32, ptr %10, align 8, !tbaa !63
  %12 = call i32 @Vec_IntEntry(ptr noundef %8, i32 noundef %11)
  store i32 %12, ptr %5, align 4, !tbaa !8
  %13 = load i32, ptr %5, align 4, !tbaa !8
  %14 = add nsw i32 %13, -1
  store i32 %14, ptr %5, align 4, !tbaa !8
  %15 = icmp eq i32 %14, 0
  br i1 %15, label %16, label %30

16:                                               ; preds = %2
  %17 = load ptr, ptr %4, align 8, !tbaa !43
  %18 = call ptr @Abc_ObjGetSupp(ptr noundef %17)
  call void @Vec_IntFree(ptr noundef %18)
  %19 = load ptr, ptr %4, align 8, !tbaa !43
  call void @Abc_ObjSetSupp(ptr noundef %19, ptr noundef null)
  %20 = load ptr, ptr %3, align 8, !tbaa !10
  %21 = getelementptr inbounds nuw %struct.Cov_Man_t_, ptr %20, i32 0, i32 6
  %22 = load ptr, ptr %21, align 8, !tbaa !47
  %23 = load ptr, ptr %4, align 8, !tbaa !43
  %24 = call ptr @Abc_ObjGetCover2(ptr noundef %23)
  call void @Min_CoverRecycle(ptr noundef %22, ptr noundef %24)
  %25 = load ptr, ptr %4, align 8, !tbaa !43
  call void @Abc_ObjSetCover2(ptr noundef %25, ptr noundef null)
  %26 = load ptr, ptr %3, align 8, !tbaa !10
  %27 = getelementptr inbounds nuw %struct.Cov_Man_t_, ptr %26, i32 0, i32 15
  %28 = load i32, ptr %27, align 8, !tbaa !65
  %29 = add nsw i32 %28, -1
  store i32 %29, ptr %27, align 8, !tbaa !65
  br label %30

30:                                               ; preds = %16, %2
  %31 = load ptr, ptr %3, align 8, !tbaa !10
  %32 = getelementptr inbounds nuw %struct.Cov_Man_t_, ptr %31, i32 0, i32 3
  %33 = load ptr, ptr %32, align 8, !tbaa !62
  %34 = load ptr, ptr %4, align 8, !tbaa !43
  %35 = getelementptr inbounds nuw %struct.Abc_Obj_t_, ptr %34, i32 0, i32 2
  %36 = load i32, ptr %35, align 8, !tbaa !63
  %37 = load i32, ptr %5, align 4, !tbaa !8
  call void @Vec_IntWriteEntry(ptr noundef %33, i32 noundef %36, i32 noundef %37)
  call void @llvm.lifetime.end.p0(i64 4, ptr %5) #8
  ret void
}