; Function Attrs: nounwind uwtable
define void @Abc_NodeCovDropData(ptr noundef captures(none) %0, ptr noundef readonly captures(none) %1) local_unnamed_addr #0 {
  %3 = getelementptr inbounds nuw i8, ptr %0, i64 16
  %4 = load ptr, ptr %3, align 8, !tbaa !53
  %5 = getelementptr inbounds nuw i8, ptr %1, i64 16
  %6 = load i32, ptr %5, align 8, !tbaa !54
  %7 = getelementptr i8, ptr %4, i64 8
  %.val = load ptr, ptr %7, align 8, !tbaa !18
  %8 = sext i32 %6 to i64
  %9 = getelementptr inbounds i32, ptr %.val, i64 %8
  %10 = load i32, ptr %9, align 4, !tbaa !24
  %11 = add nsw i32 %10, -1
  %12 = icmp eq i32 %11, 0
  br i1 %12, label %.split12, label %.split

.split:                                           ; preds = %2
  store i32 %11, ptr %9, align 4, !tbaa !24
  br label %46

.split12:                                         ; preds = %2
  %.val15 = load ptr, ptr %1, align 8, !tbaa !57
  %13 = getelementptr i8, ptr %.val15, i64 272
  %.val15.val = load ptr, ptr %13, align 8, !tbaa !58
  %14 = getelementptr i8, ptr %.val15.val, i64 24
  %.val15.val.val = load ptr, ptr %14, align 8, !tbaa !44
  %15 = getelementptr i8, ptr %.val15.val.val, i64 8
  %.val15.val.val.val = load ptr, ptr %15, align 8, !tbaa !43
  %16 = getelementptr inbounds ptr, ptr %.val15.val.val.val, i64 %8
  %17 = load ptr, ptr %16, align 8, !tbaa !45
  %18 = getelementptr inbounds nuw i8, ptr %17, i64 24
  %19 = load ptr, ptr %18, align 8, !tbaa !50
  %20 = getelementptr inbounds nuw i8, ptr %19, i64 8
  %21 = load ptr, ptr %20, align 8, !tbaa !18
  %.not.i = icmp eq ptr %21, null
  br i1 %.not.i, label %Vec_IntFree.exit, label %22

22:                                               ; preds = %.split12
  tail call void @free(ptr noundef nonnull %21) #9
  br label %Vec_IntFree.exit

Vec_IntFree.exit:                                 ; preds = %.split12, %22
  tail call void @free(ptr noundef nonnull %19) #9
  %.val17 = load ptr, ptr %1, align 8, !tbaa !57
  %.val18 = load i32, ptr %5, align 8, !tbaa !54
  %23 = getelementptr i8, ptr %.val17, i64 272
  %.val17.val = load ptr, ptr %23, align 8, !tbaa !58
  %24 = getelementptr i8, ptr %.val17.val, i64 24
  %.val17.val.val = load ptr, ptr %24, align 8, !tbaa !44
  %25 = getelementptr i8, ptr %.val17.val.val, i64 8
  %.val17.val.val.val = load ptr, ptr %25, align 8, !tbaa !43
  %26 = sext i32 %.val18 to i64
  %27 = getelementptr inbounds ptr, ptr %.val17.val.val.val, i64 %26
  %28 = load ptr, ptr %27, align 8, !tbaa !45
  %29 = getelementptr inbounds nuw i8, ptr %28, i64 24
  store ptr null, ptr %29, align 8, !tbaa !50
  %30 = load ptr, ptr %27, align 8, !tbaa !45
  %31 = getelementptr inbounds nuw i8, ptr %30, i64 16
  %32 = load ptr, ptr %31, align 8, !tbaa !59
  %.not.i23 = icmp eq ptr %32, null
  br i1 %.not.i23, label %Min_CoverRecycle.exit, label %.lr.ph.i

.lr.ph.i:                                         ; preds = %Vec_IntFree.exit
  %33 = getelementptr inbounds nuw i8, ptr %0, i64 40
  %34 = load ptr, ptr %33, align 8, !tbaa !49
  %35 = getelementptr inbounds nuw i8, ptr %34, i64 8
  br label %36

36:                                               ; preds = %36, %.lr.ph.i
  %.0914.i = phi ptr [ %32, %.lr.ph.i ], [ %.015.i, %36 ]
  %.015.i = load ptr, ptr %.0914.i, align 8, !tbaa !61
  %37 = load ptr, ptr %35, align 8, !tbaa !63
  tail call void @Extra_MmFixedEntryRecycle(ptr noundef %37, ptr noundef nonnull %.0914.i) #9
  %.not12.i = icmp eq ptr %.015.i, null
  br i1 %.not12.i, label %Min_CoverRecycle.exit.loopexit, label %36, !llvm.loop !67

Min_CoverRecycle.exit.loopexit:                   ; preds = %36
  %.val21.pre = load ptr, ptr %1, align 8, !tbaa !57
  %.val22.pre = load i32, ptr %5, align 8, !tbaa !54
  %.phi.trans.insert = getelementptr i8, ptr %.val21.pre, i64 272
  %.val21.val.pre = load ptr, ptr %.phi.trans.insert, align 8, !tbaa !58
  %.phi.trans.insert27 = getelementptr i8, ptr %.val21.val.pre, i64 24
  %.val21.val.val.pre = load ptr, ptr %.phi.trans.insert27, align 8, !tbaa !44
  %.phi.trans.insert29 = getelementptr i8, ptr %.val21.val.val.pre, i64 8
  %.val21.val.val.val.pre = load ptr, ptr %.phi.trans.insert29, align 8, !tbaa !43
  %.phi.trans.insert31 = sext i32 %.val22.pre to i64
  %.phi.trans.insert32 = getelementptr inbounds ptr, ptr %.val21.val.val.val.pre, i64 %.phi.trans.insert31
  %.pre = load ptr, ptr %.phi.trans.insert32, align 8, !tbaa !45
  br label %Min_CoverRecycle.exit

Min_CoverRecycle.exit:                            ; preds = %Min_CoverRecycle.exit.loopexit, %Vec_IntFree.exit
  %.pre-phi = phi i64 [ %.phi.trans.insert31, %Min_CoverRecycle.exit.loopexit ], [ %26, %Vec_IntFree.exit ]
  %38 = phi ptr [ %.pre, %Min_CoverRecycle.exit.loopexit ], [ %30, %Vec_IntFree.exit ]
  %39 = getelementptr inbounds nuw i8, ptr %38, i64 16
  store ptr null, ptr %39, align 8, !tbaa !59
  %40 = getelementptr inbounds nuw i8, ptr %0, i64 104
  %41 = load i32, ptr %40, align 8, !tbaa !68
  %42 = add nsw i32 %41, -1
  store i32 %42, ptr %40, align 8, !tbaa !68
  %43 = load ptr, ptr %3, align 8, !tbaa !53
  %44 = getelementptr i8, ptr %43, i64 8
  %.val13 = load ptr, ptr %44, align 8, !tbaa !18
  %45 = getelementptr inbounds i32, ptr %.val13, i64 %.pre-phi
  store i32 0, ptr %45, align 4, !tbaa !24
  br label %46

46:                                               ; preds = %.split, %Min_CoverRecycle.exit
  ret void
}